target datalayout = "e-m:e-p270:32:32-p271:32:32-p272:64:64-i64:64-i128:128-f80:128-n8:16:32:64-S128"
target triple = "x86_64-pc-linux-gnu"

%struct.Sim_Man_t_ = type { ptr, i32, i32, i32, i32, i32, ptr, ptr, i32, i32, ptr, ptr, ptr, i32, ptr, ptr, ptr, i32, i32, i32, i64, i64, i64, i64, i64 }

@.str.4 = private unnamed_addr constant [27 x i8] c"Sat runs SAT       = %8d.\0A\00", align 1
@.str.5 = private unnamed_addr constant [27 x i8] c"Sat runs UNSAT     = %8d.\0A\00", align 1
@.str.6 = private unnamed_addr constant [5 x i8] c"%s =\00", align 1
@.str.8 = private unnamed_addr constant [11 x i8] c"%9.2f sec\0A\00", align 1
@.str.9 = private unnamed_addr constant [13 x i8] c"Simulation  \00", align 1
@.str.12 = private unnamed_addr constant [13 x i8] c"Fraiging    \00", align 1
@.str.13 = private unnamed_addr constant [13 x i8] c"SAT         \00", align 1
@.str.14 = private unnamed_addr constant [13 x i8] c"TOTAL       \00", align 1
@.str.15 = private unnamed_addr constant [27 x i8] c"Total func supps   = %8d.\0A\00", align 1
@.str.16 = private unnamed_addr constant [27 x i8] c"Total struct supps = %8d.\0A\00", align 1
@.str.17 = private unnamed_addr constant [13 x i8] c"Traversal   \00", align 1

; Function Attrs: nounwind uwtable
define void @Sim_ManPrintStats(ptr noundef %0) #0 {
  %2 = alloca ptr, align 8
  store ptr %0, ptr %2, align 8, !tbaa !87
  %3 = load ptr, ptr %2, align 8, !tbaa !87
  %4 = call i32 @Sim_UtilCountSuppSizes(ptr noundef %3, i32 noundef 0)
  %5 = call i32 (ptr, ...) @printf(ptr noundef @.str.15, i32 noundef %4)
  %6 = load ptr, ptr %2, align 8, !tbaa !87
  %7 = call i32 @Sim_UtilCountSuppSizes(ptr noundef %6, i32 noundef 1)
  %8 = call i32 (ptr, ...) @printf(ptr noundef @.str.16, i32 noundef %7)
  %9 = load ptr, ptr %2, align 8, !tbaa !87
  %10 = getelementptr inbounds nuw %struct.Sim_Man_t_, ptr %9, i32 0, i32 18
  %11 = load i32, ptr %10, align 4, !tbaa !109
  %12 = call i32 (ptr, ...) @printf(ptr noundef @.str.4, i32 noundef %11)
  %13 = load ptr, ptr %2, align 8, !tbaa !87
  %14 = getelementptr inbounds nuw %struct.Sim_Man_t_, ptr %13, i32 0, i32 19
  %15 = load i32, ptr %14, align 8, !tbaa !110
  %16 = call i32 (ptr, ...) @printf(ptr noundef @.str.5, i32 noundef %15)
  call void (i32, ptr, ...) @Abc_Print(i32 noundef 1, ptr noundef @.str.6, ptr noundef @.str.9)
  %17 = load ptr, ptr %2, align 8, !tbaa !87
  %18 = getelementptr inbounds nuw %struct.Sim_Man_t_, ptr %17, i32 0, i32 20
  %19 = load i64, ptr %18, align 8, !tbaa !111
  %20 = sitofp i64 %19 to double
  %21 = fmul double 1.000000e+00, %20
  %22 = fdiv double %21, 1.000000e+06
  call void (i32, ptr, ...) @Abc_Print(i32 noundef 1, ptr noundef @.str.8, double noundef %22)
  call void (i32, ptr, ...) @Abc_Print(i32 noundef 1, ptr noundef @.str.6, ptr noundef @.str.17)
  %23 = load ptr, ptr %2, align 8, !tbaa !87
  %24 = getelementptr inbounds nuw %struct.Sim_Man_t_, ptr %23, i32 0, i32 21
  %25 = load i64, ptr %24, align 8, !tbaa !112
  %26 = sitofp i64 %25 to double
  %27 = fmul double 1.000000e+00, %26
  %28 = fdiv double %27, 1.000000e+06
  call void (i32, ptr, ...) @Abc_Print(i32 noundef 1, ptr noundef @.str.8, double noundef %28)
  call void (i32, ptr, ...) @Abc_Print(i32 noundef 1, ptr noundef @.str.6, ptr noundef @.str.12)
  %29 = load ptr, ptr %2, align 8, !tbaa !87
  %30 = getelementptr inbounds nuw %struct.Sim_Man_t_, ptr %29, i32 0, i32 22
  %31 = load i64, ptr %30, align 8, !tbaa !113
  %32 = sitofp i64 %31 to double
  %33 = fmul double 1.000000e+00, %32
  %34 = fdiv double %33, 1.000000e+06
  call void (i32, ptr, ...) @Abc_Print(i32 noundef 1, ptr noundef @.str.8, double noundef %34)
  call void (i32, ptr, ...) @Abc_Print(i32 noundef 1, ptr noundef @.str.6, ptr noundef @.str.13)
  %35 = load ptr, ptr %2, align 8, !tbaa !87
  %36 = getelementptr inbounds nuw %struct.Sim_Man_t_, ptr %35, i32 0, i32 23
  %37 = load i64, ptr %36, align 8, !tbaa !114
  %38 = sitofp i64 %37 to double
  %39 = fmul double 1.000000e+00, %38
  %40 = fdiv double %39, 1.000000e+06
  call void (i32, ptr, ...) @Abc_Print(i32 noundef 1, ptr noundef @.str.8, double noundef %40)
  call void (i32, ptr, ...) @Abc_Print(i32 noundef 1, ptr noundef @.str.6, ptr noundef @.str.14)
  %41 = load ptr, ptr %2, align 8, !tbaa !87
  %42 = getelementptr inbounds nuw %struct.Sim_Man_t_, ptr %41, i32 0, i32 24
  %43 = load i64, ptr %42, align 8, !tbaa !115
  %44 = sitofp i64 %43 to double
  %45 = fmul double 1.000000e+00, %44
  %46 = fdiv double %45, 1.000000e+06
  call void (i32, ptr, ...) @Abc_Print(i32 noundef 1, ptr noundef @.str.8, double noundef %46)
  ret void
}