; Function Attrs: nounwind uwtable
define void @Sim_ManPrintStats(ptr noundef %0) local_unnamed_addr #0 {
  %2 = tail call i32 @Sim_UtilCountSuppSizes(ptr noundef %0, i32 noundef 0) #12
  %3 = tail call i32 (ptr, ...) @printf(ptr noundef nonnull dereferenceable(1) @.str.15, i32 noundef %2)
  %4 = tail call i32 @Sim_UtilCountSuppSizes(ptr noundef %0, i32 noundef 1) #12
  %5 = tail call i32 (ptr, ...) @printf(ptr noundef nonnull dereferenceable(1) @.str.16, i32 noundef %4)
  %6 = getelementptr inbounds nuw i8, ptr %0, i64 116
  %7 = load i32, ptr %6, align 4, !tbaa !105
  %8 = tail call i32 (ptr, ...) @printf(ptr noundef nonnull dereferenceable(1) @.str.4, i32 noundef %7)
  %9 = getelementptr inbounds nuw i8, ptr %0, i64 120
  %10 = load i32, ptr %9, align 8, !tbaa !106
  %11 = tail call i32 (ptr, ...) @printf(ptr noundef nonnull dereferenceable(1) @.str.5, i32 noundef %10)
  tail call void (i32, ptr, ...) @Abc_Print(i32 poison, ptr noundef nonnull @.str.6, ptr noundef nonnull @.str.9)
  %12 = getelementptr inbounds nuw i8, ptr %0, i64 128
  %13 = load i64, ptr %12, align 8, !tbaa !107
  %14 = sitofp i64 %13 to double
  %15 = fdiv double %14, 1.000000e+06
  tail call void (i32, ptr, ...) @Abc_Print(i32 poison, ptr noundef nonnull @.str.8, double noundef %15)
  tail call void (i32, ptr, ...) @Abc_Print(i32 poison, ptr noundef nonnull @.str.6, ptr noundef nonnull @.str.17)
  %16 = getelementptr inbounds nuw i8, ptr %0, i64 136
  %17 = load i64, ptr %16, align 8, !tbaa !108
  %18 = sitofp i64 %17 to double
  %19 = fdiv double %18, 1.000000e+06
  tail call void (i32, ptr, ...) @Abc_Print(i32 poison, ptr noundef nonnull @.str.8, double noundef %19)
  tail call void (i32, ptr, ...) @Abc_Print(i32 poison, ptr noundef nonnull @.str.6, ptr noundef nonnull @.str.12)
  %20 = getelementptr inbounds nuw i8, ptr %0, i64 144
  %21 = load i64, ptr %20, align 8, !tbaa !109
  %22 = sitofp i64 %21 to double
  %23 = fdiv double %22, 1.000000e+06
  tail call void (i32, ptr, ...) @Abc_Print(i32 poison, ptr noundef nonnull @.str.8, double noundef %23)
  tail call void (i32, ptr, ...) @Abc_Print(i32 poison, ptr noundef nonnull @.str.6, ptr noundef nonnull @.str.13)
  %24 = getelementptr inbounds nuw i8, ptr %0, i64 152
  %25 = load i64, ptr %24, align 8, !tbaa !110
  %26 = sitofp i64 %25 to double
  %27 = fdiv double %26, 1.000000e+06
  tail call void (i32, ptr, ...) @Abc_Print(i32 poison, ptr noundef nonnull @.str.8, double noundef %27)
  tail call void (i32, ptr, ...) @Abc_Print(i32 poison, ptr noundef nonnull @.str.6, ptr noundef nonnull @.str.14)
  %28 = getelementptr inbounds nuw i8, ptr %0, i64 160
  %29 = load i64, ptr %28, align 8, !tbaa !111
  %30 = sitofp i64 %29 to double
  %31 = fdiv double %30, 1.000000e+06
  tail call void (i32, ptr, ...) @Abc_Print(i32 poison, ptr noundef nonnull @.str.8, double noundef %31)
  ret void
}